(dp0
S'ahlzfnByZWRhdG9yLWZvci1tZS1zdGFnaW5nckELEhNDcmFjYXNDcmFzaEFuYWx5c2lzIigxOWY0YmIxNjIxNWNmYTJmNzNjOTZhMjIxYzA3MzY4NTQ4ZTc0ZTRjDA'
p1
NsS'ahlzfnByZWRhdG9yLWZvci1tZS1zdGFnaW5nckELEhNDcmFjYXNDcmFzaEFuYWx5c2lzIihhNDE3Yjk3YjYxMmNmNTA4NjNkZTg2NzgwMjJlYmViOTRiMmFlMzRiDA'
p2
NsS'ahlzfnByZWRhdG9yLWZvci1tZS1zdGFnaW5nckELEhNDcmFjYXNDcmFzaEFuYWx5c2lzIihjZmVlYWY0NTU3ZGY0YmNkM2Y2YmM0MGMzYTZkNmY3YzIwYzcyYzdiDA'
p3
Ns.